target datalayout = "e-m:e-p270:32:32-p271:32:32-p272:64:64-i64:64-i128:128-f80:128-n8:16:32:64-S128"
target triple = "x86_64-pc-linux-gnu"

%struct.H5O_token_t = type { [16 x i8] }

@.str = private unnamed_addr constant [104 x i8] c"generated/home/dtcxzyw/WorkSpace/Projects/compilers/llvm-opt-benchmark/bench/hdf5/hdf5/src/H5VLnative.c\00", align 1
@H5E_VOL_g = external global i64, align 8
@H5E_CANTGET_g = external global i64, align 8
@__func__.H5VL__native_get_file_addr_len = private unnamed_addr constant [31 x i8] c"H5VL__native_get_file_addr_len\00", align 1
@.str.5 = private unnamed_addr constant [34 x i8] c"couldn't get file from VOL object\00", align 1
@.str.11 = private unnamed_addr constant [47 x i8] c"couldn't get length of haddr_t from VOL object\00", align 1
@__func__.H5VL_native_token_to_addr = private unnamed_addr constant [26 x i8] c"H5VL_native_token_to_addr\00", align 1

; Function Attrs: nounwind uwtable
define i32 @H5VL__native_get_file_addr_len(ptr noundef %0, i32 noundef %1, ptr noundef %2) #0 {
  %4 = alloca ptr, align 8
  %5 = alloca i32, align 4
  %6 = alloca ptr, align 8
  %7 = alloca ptr, align 8
  %8 = alloca i32, align 4
  %9 = alloca i8, align 1
  store ptr %0, ptr %4, align 8, !tbaa !16
  store i32 %1, ptr %5, align 4, !tbaa !3
  store ptr %2, ptr %6, align 8, !tbaa !21
  call void @llvm.lifetime.start.p0(i64 8, ptr %7) #5
  store ptr null, ptr %7, align 8, !tbaa !23
  call void @llvm.lifetime.start.p0(i64 4, ptr %8) #5
  store i32 0, ptr %8, align 4, !tbaa !3
  call void @llvm.lifetime.start.p0(i64 1, ptr %9) #5
  store i8 0, ptr %9, align 1, !tbaa !7
  %10 = load ptr, ptr %4, align 8, !tbaa !16
  %11 = load i32, ptr %5, align 4, !tbaa !3
  %12 = call i32 @H5VL_native_get_file_struct(ptr noundef %10, i32 noundef %11, ptr noundef %7)
  %13 = icmp slt i32 %12, 0
  br i1 %13, label %14, label %33

14:                                               ; preds = %3
  br label %15

15:                                               ; preds = %14
  br label %16

16:                                               ; preds = %15
  br label %17

17:                                               ; preds = %16
  %18 = load i64, ptr @H5E_VOL_g, align 8, !tbaa !12
  %19 = load i64, ptr @H5E_CANTGET_g, align 8, !tbaa !12
  %20 = call i32 (ptr, ptr, i32, i64, i64, ptr, ...) @H5E_printf_stack(ptr noundef @.str, ptr noundef @__func__.H5VL__native_get_file_addr_len, i32 noundef 355, i64 noundef %18, i64 noundef %19, ptr noundef @.str.5)
  br label %21

21:                                               ; preds = %17
  br label %22

22:                                               ; preds = %21
  store i8 1, ptr %9, align 1, !tbaa !7
  %23 = load i8, ptr %9, align 1, !tbaa !7, !range !14, !noundef !15
  %24 = trunc i8 %23 to i1
  %25 = zext i1 %24 to i8
  store i8 %25, ptr %9, align 1, !tbaa !7
  br label %26

26:                                               ; preds = %22
  br label %27

27:                                               ; preds = %26
  br label %28

28:                                               ; preds = %27
  store i32 -1, ptr %8, align 4, !tbaa !3
  br label %38

29:                                               ; No predecessors!
  br label %30

30:                                               ; preds = %29
  br label %31

31:                                               ; preds = %30
  br label %32

32:                                               ; preds = %31
  br label %33

33:                                               ; preds = %32, %3
  %34 = load ptr, ptr %7, align 8, !tbaa !23
  %35 = call zeroext i8 @H5F_sizeof_addr(ptr noundef %34)
  %36 = zext i8 %35 to i64
  %37 = load ptr, ptr %6, align 8, !tbaa !21
  store i64 %36, ptr %37, align 8, !tbaa !12
  br label %38

38:                                               ; preds = %33, %28
  %39 = load i32, ptr %8, align 4, !tbaa !3
  call void @llvm.lifetime.end.p0(i64 1, ptr %9) #5
  call void @llvm.lifetime.end.p0(i64 4, ptr %8) #5
  call void @llvm.lifetime.end.p0(i64 8, ptr %7) #5
  ret i32 %39
}

; Function Attrs: nounwind uwtable
define i32 @H5VL_native_token_to_addr(ptr noundef %0, i32 noundef %1, i64 %2, i64 %3, ptr noundef %4) #0 {
  %6 = alloca %struct.H5O_token_t, align 1
  %7 = alloca ptr, align 8
  %8 = alloca i32, align 4
  %9 = alloca ptr, align 8
  %10 = alloca ptr, align 8
  %11 = alloca i64, align 8
  %12 = alloca i32, align 4
  %13 = alloca i8, align 1
  %14 = getelementptr inbounds nuw { i64, i64 }, ptr %6, i32 0, i32 0
  store i64 %2, ptr %14, align 1
  %15 = getelementptr inbounds nuw { i64, i64 }, ptr %6, i32 0, i32 1
  store i64 %3, ptr %15, align 1
  store ptr %0, ptr %7, align 8, !tbaa !16
  store i32 %1, ptr %8, align 4, !tbaa !3
  store ptr %4, ptr %9, align 8, !tbaa !21
  call void @llvm.lifetime.start.p0(i64 8, ptr %10) #5
  call void @llvm.lifetime.start.p0(i64 8, ptr %11) #5
  store i64 0, ptr %11, align 8, !tbaa !12
  call void @llvm.lifetime.start.p0(i64 4, ptr %12) #5
  store i32 0, ptr %12, align 4, !tbaa !3
  call void @llvm.lifetime.start.p0(i64 1, ptr %13) #5
  store i8 0, ptr %13, align 1, !tbaa !7
  %16 = load ptr, ptr %7, align 8, !tbaa !16
  %17 = load i32, ptr %8, align 4, !tbaa !3
  %18 = call i32 @H5VL__native_get_file_addr_len(ptr noundef %16, i32 noundef %17, ptr noundef %11)
  %19 = icmp slt i32 %18, 0
  br i1 %19, label %20, label %39

20:                                               ; preds = %5
  br label %21

21:                                               ; preds = %20
  br label %22

22:                                               ; preds = %21
  br label %23

23:                                               ; preds = %22
  %24 = load i64, ptr @H5E_VOL_g, align 8, !tbaa !12
  %25 = load i64, ptr @H5E_CANTGET_g, align 8, !tbaa !12
  %26 = call i32 (ptr, ptr, i32, i64, i64, ptr, ...) @H5E_printf_stack(ptr noundef @.str, ptr noundef @__func__.H5VL_native_token_to_addr, i32 noundef 537, i64 noundef %24, i64 noundef %25, ptr noundef @.str.11)
  br label %27

27:                                               ; preds = %23
  br label %28

28:                                               ; preds = %27
  store i8 1, ptr %13, align 1, !tbaa !7
  %29 = load i8, ptr %13, align 1, !tbaa !7, !range !14, !noundef !15
  %30 = trunc i8 %29 to i1
  %31 = zext i1 %30 to i8
  store i8 %31, ptr %13, align 1, !tbaa !7
  br label %32

32:                                               ; preds = %28
  br label %33

33:                                               ; preds = %32
  br label %34

34:                                               ; preds = %33
  store i32 -1, ptr %12, align 4, !tbaa !3
  br label %42

35:                                               ; No predecessors!
  br label %36

36:                                               ; preds = %35
  br label %37

37:                                               ; preds = %36
  br label %38

38:                                               ; preds = %37
  br label %39

39:                                               ; preds = %38, %5
  store ptr %6, ptr %10, align 8, !tbaa !33
  %40 = load i64, ptr %11, align 8, !tbaa !12
  %41 = load ptr, ptr %9, align 8, !tbaa !21
  call void @H5F_addr_decode_len(i64 noundef %40, ptr noundef %10, ptr noundef %41)
  br label %42

42:                                               ; preds = %39, %34
  %43 = load i32, ptr %12, align 4, !tbaa !3
  call void @llvm.lifetime.end.p0(i64 1, ptr %13) #5
  call void @llvm.lifetime.end.p0(i64 4, ptr %12) #5
  call void @llvm.lifetime.end.p0(i64 8, ptr %11) #5
  call void @llvm.lifetime.end.p0(i64 8, ptr %10) #5
  ret i32 %43
}