; Function Attrs: nounwind uwtable
define range(i32 -1, 1) i32 @H5VL_native_token_to_addr(ptr noundef %0, i32 noundef %1, i64 %2, i64 %3, ptr noundef %4) local_unnamed_addr #0 {
  %6 = alloca ptr, align 8
  %7 = alloca %struct.H5O_token_t, align 8
  %8 = alloca ptr, align 8
  store i64 %2, ptr %7, align 8
  %9 = getelementptr inbounds nuw i8, ptr %7, i64 8
  store i64 %3, ptr %9, align 8
  call void @llvm.lifetime.start.p0(i64 8, ptr nonnull %8) #6
  call void @llvm.lifetime.start.p0(i64 8, ptr nonnull %6) #6
  %10 = call i32 @H5VL_native_get_file_struct(ptr noundef %0, i32 noundef %1, ptr noundef nonnull %6)
  %11 = icmp slt i32 %10, 0
  br i1 %11, label %12, label %19

12:                                               ; preds = %5
  %13 = load i64, ptr @H5E_VOL_g, align 8, !tbaa !8
  %14 = load i64, ptr @H5E_CANTGET_g, align 8, !tbaa !8
  %15 = tail call i32 (ptr, ptr, i32, i64, i64, ptr, ...) @H5E_printf_stack(ptr noundef nonnull @.str, ptr noundef nonnull @__func__.H5VL__native_get_file_addr_len, i32 noundef 355, i64 noundef %13, i64 noundef %14, ptr noundef nonnull @.str.5) #6
  call void @llvm.lifetime.end.p0(i64 8, ptr nonnull %6) #6
  %16 = load i64, ptr @H5E_VOL_g, align 8, !tbaa !8
  %17 = load i64, ptr @H5E_CANTGET_g, align 8, !tbaa !8
  %18 = tail call i32 (ptr, ptr, i32, i64, i64, ptr, ...) @H5E_printf_stack(ptr noundef nonnull @.str, ptr noundef nonnull @__func__.H5VL_native_token_to_addr, i32 noundef 537, i64 noundef %16, i64 noundef %17, ptr noundef nonnull @.str.11) #6
  br label %23

19:                                               ; preds = %5
  %20 = load ptr, ptr %6, align 8, !tbaa !12
  %21 = tail call zeroext i8 @H5F_sizeof_addr(ptr noundef %20) #6
  %22 = zext i8 %21 to i64
  call void @llvm.lifetime.end.p0(i64 8, ptr nonnull %6) #6
  store ptr %7, ptr %8, align 8, !tbaa !23
  call void @H5F_addr_decode_len(i64 noundef %22, ptr noundef nonnull %8, ptr noundef %4) #6
  br label %23

23:                                               ; preds = %19, %12
  %.0 = phi i32 [ -1, %12 ], [ 0, %19 ]
  call void @llvm.lifetime.end.p0(i64 8, ptr nonnull %8) #6
  ret i32 %.0
}